; ModuleID = '58/71.c'
source_filename = "58/71.c"
target datalayout = "e-m:e-p270:32:32-p271:32:32-p272:64:64-i64:64-f80:128-n8:16:32:64-S128"
target triple = "x86_64-pc-linux-gnu"

@.str = private unnamed_addr constant [3 x i8] c"%d\00", align 1
@.str.1 = private unnamed_addr constant [3 x i8] c"1\0A\00", align 1
@.str.2 = private unnamed_addr constant [3 x i8] c"0\0A\00", align 1

; Function Attrs: noinline nounwind uwtable
define dso_local void @main() #0 {
  %1 = alloca i32, align 4
  %2 = alloca i32, align 4
  %3 = alloca i32, align 4
  %4 = alloca i32, align 4
  %5 = alloca i32, align 4
  %6 = alloca i8*, align 8
  %7 = alloca i8, align 1
  %8 = alloca i8, align 1
  store i32 0, i32* %3, align 4
  store i32 0, i32* %4, align 4
  store i32 0, i32* %5, align 4
  %9 = call noalias i8* @malloc(i64 80) #3
  store i8* %9, i8** %6, align 8
  %10 = call i32 (i8*, ...) @__isoc99_scanf(i8* getelementptr inbounds ([3 x i8], [3 x i8]* @.str, i64 0, i64 0), i32* %1)
  %11 = load i8*, i8** %6, align 8
  %12 = call i32 (i8*, ...) bitcast (i32 (...)* @gets to i32 (i8*, ...)*)(i8* %11)
  store i32 0, i32* %2, align 4
  br label %13

13:                                               ; preds = %146, %0
  %14 = load i32, i32* %2, align 4
  %15 = load i32, i32* %1, align 4
  %16 = icmp slt i32 %14, %15
  br i1 %16, label %17, label %149

17:                                               ; preds = %13
  %18 = call noalias i8* @malloc(i64 80) #3
  store i8* %18, i8** %6, align 8
  store i32 0, i32* %4, align 4
  store i32 0, i32* %5, align 4
  %19 = load i8*, i8** %6, align 8
  %20 = call i32 (i8*, ...) bitcast (i32 (...)* @gets to i32 (i8*, ...)*)(i8* %19)
  store i32 0, i32* %3, align 4
  br label %21

21:                                               ; preds = %36, %17
  %22 = load i32, i32* %3, align 4
  %23 = icmp slt i32 %22, 80
  br i1 %23, label %24, label %39

24:                                               ; preds = %21
  %25 = load i8*, i8** %6, align 8
  %26 = load i32, i32* %3, align 4
  %27 = sext i32 %26 to i64
  %28 = getelementptr inbounds i8, i8* %25, i64 %27
  %29 = load i8, i8* %28, align 1
  store i8 %29, i8* %8, align 1
  %30 = sext i8 %29 to i32
  %31 = icmp ne i32 %30, 0
  br i1 %31, label %32, label %35

32:                                               ; preds = %24
  %33 = load i32, i32* %5, align 4
  %34 = add nsw i32 %33, 1
  store i32 %34, i32* %5, align 4
  br label %35

35:                                               ; preds = %32, %24
  br label %36

36:                                               ; preds = %35
  %37 = load i32, i32* %3, align 4
  %38 = add nsw i32 %37, 1
  store i32 %38, i32* %3, align 4
  br label %21

39:                                               ; preds = %21
  store i32 0, i32* %3, align 4
  br label %40

40:                                               ; preds = %104, %39
  %41 = load i32, i32* %3, align 4
  %42 = load i32, i32* %5, align 4
  %43 = icmp slt i32 %41, %42
  br i1 %43, label %44, label %107

44:                                               ; preds = %40
  %45 = load i8*, i8** %6, align 8
  %46 = load i32, i32* %3, align 4
  %47 = sext i32 %46 to i64
  %48 = getelementptr inbounds i8, i8* %45, i64 %47
  %49 = load i8, i8* %48, align 1
  store i8 %49, i8* %8, align 1
  %50 = sext i8 %49 to i32
  %51 = icmp sge i32 %50, 48
  br i1 %51, label %52, label %60

52:                                               ; preds = %44
  %53 = load i8*, i8** %6, align 8
  %54 = load i32, i32* %3, align 4
  %55 = sext i32 %54 to i64
  %56 = getelementptr inbounds i8, i8* %53, i64 %55
  %57 = load i8, i8* %56, align 1
  store i8 %57, i8* %8, align 1
  %58 = sext i8 %57 to i32
  %59 = icmp sle i32 %58, 57
  br i1 %59, label %100, label %60

60:                                               ; preds = %52, %44
  %61 = load i8*, i8** %6, align 8
  %62 = load i32, i32* %3, align 4
  %63 = sext i32 %62 to i64
  %64 = getelementptr inbounds i8, i8* %61, i64 %63
  %65 = load i8, i8* %64, align 1
  store i8 %65, i8* %8, align 1
  %66 = sext i8 %65 to i32
  %67 = icmp sge i32 %66, 65
  br i1 %67, label %68, label %76

68:                                               ; preds = %60
  %69 = load i8*, i8** %6, align 8
  %70 = load i32, i32* %3, align 4
  %71 = sext i32 %70 to i64
  %72 = getelementptr inbounds i8, i8* %69, i64 %71
  %73 = load i8, i8* %72, align 1
  store i8 %73, i8* %8, align 1
  %74 = sext i8 %73 to i32
  %75 = icmp sle i32 %74, 90
  br i1 %75, label %100, label %76

76:                                               ; preds = %68, %60
  %77 = load i8*, i8** %6, align 8
  %78 = load i32, i32* %3, align 4
  %79 = sext i32 %78 to i64
  %80 = getelementptr inbounds i8, i8* %77, i64 %79
  %81 = load i8, i8* %80, align 1
  store i8 %81, i8* %8, align 1
  %82 = sext i8 %81 to i32
  %83 = icmp sge i32 %82, 97
  br i1 %83, label %84, label %92

84:                                               ; preds = %76
  %85 = load i8*, i8** %6, align 8
  %86 = load i32, i32* %3, align 4
  %87 = sext i32 %86 to i64
  %88 = getelementptr inbounds i8, i8* %85, i64 %87
  %89 = load i8, i8* %88, align 1
  store i8 %89, i8* %8, align 1
  %90 = sext i8 %89 to i32
  %91 = icmp sle i32 %90, 122
  br i1 %91, label %100, label %92

92:                                               ; preds = %84, %76
  %93 = load i8*, i8** %6, align 8
  %94 = load i32, i32* %3, align 4
  %95 = sext i32 %94 to i64
  %96 = getelementptr inbounds i8, i8* %93, i64 %95
  %97 = load i8, i8* %96, align 1
  store i8 %97, i8* %8, align 1
  %98 = sext i8 %97 to i32
  %99 = icmp eq i32 %98, 95
  br i1 %99, label %100, label %102

100:                                              ; preds = %92, %84, %68, %52
  %101 = load i32, i32* %4, align 4
  store i32 %101, i32* %4, align 4
  br label %103

102:                                              ; preds = %92
  store i32 1, i32* %4, align 4
  br label %103

103:                                              ; preds = %102, %100
  br label %104

104:                                              ; preds = %103
  %105 = load i32, i32* %3, align 4
  %106 = add nsw i32 %105, 1
  store i32 %106, i32* %3, align 4
  br label %40

107:                                              ; preds = %40
  %108 = load i32, i32* %4, align 4
  %109 = icmp ne i32 %108, 1
  br i1 %109, label %110, label %120

110:                                              ; preds = %107
  %111 = load i8*, i8** %6, align 8
  %112 = load i8, i8* %111, align 1
  store i8 %112, i8* %7, align 1
  %113 = sext i8 %112 to i32
  %114 = icmp sge i32 %113, 65
  br i1 %114, label %115, label %120

115:                                              ; preds = %110
  %116 = load i8*, i8** %6, align 8
  %117 = load i8, i8* %116, align 1
  store i8 %117, i8* %7, align 1
  %118 = sext i8 %117 to i32
  %119 = icmp sle i32 %118, 90
  br i1 %119, label %141, label %120

120:                                              ; preds = %115, %110, %107
  %121 = load i32, i32* %4, align 4
  %122 = icmp ne i32 %121, 1
  br i1 %122, label %123, label %133

123:                                              ; preds = %120
  %124 = load i8*, i8** %6, align 8
  %125 = load i8, i8* %124, align 1
  store i8 %125, i8* %7, align 1
  %126 = sext i8 %125 to i32
  %127 = icmp sge i32 %126, 97
  br i1 %127, label %128, label %133

128:                                              ; preds = %123
  %129 = load i8*, i8** %6, align 8
  %130 = load i8, i8* %129, align 1
  store i8 %130, i8* %7, align 1
  %131 = sext i8 %130 to i32
  %132 = icmp sle i32 %131, 122
  br i1 %132, label %141, label %133

133:                                              ; preds = %128, %123, %120
  %134 = load i32, i32* %4, align 4
  %135 = icmp ne i32 %134, 1
  br i1 %135, label %136, label %143

136:                                              ; preds = %133
  %137 = load i8*, i8** %6, align 8
  %138 = load i8, i8* %137, align 1
  store i8 %138, i8* %7, align 1
  %139 = sext i8 %138 to i32
  %140 = icmp eq i32 %139, 95
  br i1 %140, label %141, label %143

141:                                              ; preds = %136, %128, %115
  %142 = call i32 (i8*, ...) @printf(i8* getelementptr inbounds ([3 x i8], [3 x i8]* @.str.1, i64 0, i64 0))
  br label %145

143:                                              ; preds = %136, %133
  %144 = call i32 (i8*, ...) @printf(i8* getelementptr inbounds ([3 x i8], [3 x i8]* @.str.2, i64 0, i64 0))
  br label %145

145:                                              ; preds = %143, %141
  br label %146

146:                                              ; preds = %145
  %147 = load i32, i32* %2, align 4
  %148 = add nsw i32 %147, 1
  store i32 %148, i32* %2, align 4
  br label %13

149:                                              ; preds = %13
  ret void
}

; Function Attrs: nounwind
declare dso_local noalias i8* @malloc(i64) #1

declare dso_local i32 @__isoc99_scanf(i8*, ...) #2

declare dso_local i32 @gets(...) #2

declare dso_local i32 @printf(i8*, ...) #2


!llvm.module.flags = !{!0}
!llvm.ident = !{!1}

!0 = !{i32 1, !"wchar_size", i32 4}
!1 = !{!"clang version 10.0.0-4ubuntu1 "}
